target datalayout = "e-m:e-p270:32:32-p271:32:32-p272:64:64-i64:64-i128:128-f80:128-n8:16:32:64-S128"
target triple = "x86_64-pc-linux-gnu"

; Function Attrs: nounwind uwtable
define i32 @isVectorUnit(double noundef %0, double noundef %1, double noundef %2) #0 {
  %4 = alloca double, align 8
  %5 = alloca double, align 8
  %6 = alloca double, align 8
  store double %0, ptr %4, align 8, !tbaa !15
  store double %1, ptr %5, align 8, !tbaa !15
  store double %2, ptr %6, align 8, !tbaa !15
  %7 = load double, ptr %4, align 8, !tbaa !15
  %8 = load double, ptr %4, align 8, !tbaa !15
  %9 = load double, ptr %5, align 8, !tbaa !15
  %10 = load double, ptr %5, align 8, !tbaa !15
  %11 = fmul double %9, %10
  %12 = call double @llvm.fmuladd.f64(double %7, double %8, double %11)
  %13 = load double, ptr %6, align 8, !tbaa !15
  %14 = load double, ptr %6, align 8, !tbaa !15
  %15 = call double @llvm.fmuladd.f64(double %13, double %14, double %12)
  %16 = call double @sqrt(double noundef %15) #7, !tbaa !9
  %17 = fsub double 1.000000e+00, %16
  %18 = call double @llvm.fabs.f64(double %17)
  %19 = fcmp olt double %18, 1.000000e-13
  %20 = zext i1 %19 to i32
  ret i32 %20
}