; Function Attrs: mustprogress nofree norecurse nosync nounwind willreturn memory(none) uwtable
define range(i32 0, 2) i32 @isVectorUnit(double noundef %0, double noundef %1, double noundef %2) local_unnamed_addr #4 {
  %4 = fmul double %1, %1
  %5 = tail call double @llvm.fmuladd.f64(double %0, double %0, double %4)
  %6 = tail call double @llvm.fmuladd.f64(double %2, double %2, double %5)
  %sqrt = tail call double @llvm.sqrt.f64(double %6)
  %7 = fsub double 1.000000e+00, %sqrt
  %8 = tail call double @llvm.fabs.f64(double %7)
  %9 = fcmp olt double %8, 1.000000e-13
  %10 = zext i1 %9 to i32
  ret i32 %10
}